target datalayout = "e-m:e-p270:32:32-p271:32:32-p272:64:64-i64:64-i128:128-f80:128-n8:16:32:64-S128"
target triple = "x86_64-unknown-linux-gnu"

%struct.ResourceData = type { ptr, ptr, ptr, ptr, i32, i32, ptr, i32, i32, i8, i8, i8, i8 }

@.str = private unnamed_addr constant [4 x i8] c"res\00", align 1

; Function Attrs: mustprogress nounwind uwtable
define internal noundef signext i8 @_ZL9U_FAILURE10UErrorCode(i32 noundef %code) #2 {
entry:
  %code.addr = alloca i32, align 4
  store i32 %code, ptr %code.addr, align 4
  %0 = load i32, ptr %code.addr, align 4
  %cmp = icmp sgt i32 %0, 0
  %conv = zext i1 %cmp to i8
  ret i8 %conv
}

; Function Attrs: mustprogress uwtable
define void @res_load_75(ptr noundef %pResData, ptr noundef %path, ptr noundef %name, ptr noundef %errorCode) #0 {
entry:
  %pResData.addr = alloca ptr, align 8
  %path.addr = alloca ptr, align 8
  %name.addr = alloca ptr, align 8
  %errorCode.addr = alloca ptr, align 8
  %formatVersion = alloca [4 x i8], align 1
  store ptr %pResData, ptr %pResData.addr, align 8
  store ptr %path, ptr %path.addr, align 8
  store ptr %name, ptr %name.addr, align 8
  store ptr %errorCode, ptr %errorCode.addr, align 8
  %0 = load ptr, ptr %pResData.addr, align 8
  call void @llvm.memset.p0.i64(ptr align 8 %0, i8 0, i64 64, i1 false)
  %1 = load ptr, ptr %path.addr, align 8
  %2 = load ptr, ptr %name.addr, align 8
  %arraydecay = getelementptr inbounds [4 x i8], ptr %formatVersion, i64 0, i64 0
  %3 = load ptr, ptr %errorCode.addr, align 8
  %call = call ptr @udata_openChoice_75(ptr noundef %1, ptr noundef @.str, ptr noundef %2, ptr noundef @_ZL12isAcceptablePvPKcS1_PK9UDataInfo, ptr noundef %arraydecay, ptr noundef %3)
  %4 = load ptr, ptr %pResData.addr, align 8
  %data = getelementptr inbounds %struct.ResourceData, ptr %4, i32 0, i32 0
  store ptr %call, ptr %data, align 8
  %5 = load ptr, ptr %errorCode.addr, align 8
  %6 = load i32, ptr %5, align 4
  %call1 = call noundef signext i8 @_ZL9U_FAILURE10UErrorCode(i32 noundef %6)
  %tobool = icmp ne i8 %call1, 0
  br i1 %tobool, label %if.then, label %if.end

if.then:                                          ; preds = %entry
  br label %return

if.end:                                           ; preds = %entry
  %7 = load ptr, ptr %pResData.addr, align 8
  %arraydecay2 = getelementptr inbounds [4 x i8], ptr %formatVersion, i64 0, i64 0
  %8 = load ptr, ptr %pResData.addr, align 8
  %data3 = getelementptr inbounds %struct.ResourceData, ptr %8, i32 0, i32 0
  %9 = load ptr, ptr %data3, align 8
  %call4 = call ptr @udata_getMemory_75(ptr noundef %9)
  %10 = load ptr, ptr %errorCode.addr, align 8
  call void @_ZL8res_initP12ResourceDataPhPKviP10UErrorCode(ptr noundef %7, ptr noundef %arraydecay2, ptr noundef %call4, i32 noundef -1, ptr noundef %10)
  br label %return

return:                                           ; preds = %if.end, %if.then
  ret void
}