; Function Attrs: mustprogress uwtable
define void @res_load_75(ptr nocapture noundef %pResData, ptr noundef %path, ptr noundef %name, ptr noundef %errorCode) local_unnamed_addr #0 {
entry:
  %formatVersion = alloca [4 x i8], align 1
  tail call void @llvm.memset.p0.i64(ptr noundef nonnull align 8 dereferenceable(64) %pResData, i8 0, i64 64, i1 false)
  %call = call ptr @udata_openChoice_75(ptr noundef %path, ptr noundef nonnull @.str, ptr noundef %name, ptr noundef nonnull @_ZL12isAcceptablePvPKcS1_PK9UDataInfo, ptr noundef nonnull %formatVersion, ptr noundef %errorCode)
  store ptr %call, ptr %pResData, align 8
  %0 = load i32, ptr %errorCode, align 4
  %cmp.i = icmp slt i32 %0, 1
  br i1 %cmp.i, label %if.end, label %return

if.end:                                           ; preds = %entry
  %call4 = call ptr @udata_getMemory_75(ptr noundef %call)
  call fastcc void @_ZL8res_initP12ResourceDataPhPKviP10UErrorCode(ptr noundef nonnull %pResData, ptr noundef nonnull %formatVersion, ptr noundef %call4, i32 noundef -1, ptr noundef nonnull %errorCode)
  br label %return

return:                                           ; preds = %entry, %if.end
  ret void
}